target datalayout = "e-m:e-p270:32:32-p271:32:32-p272:64:64-i64:64-i128:128-f80:128-n8:16:32:64-S128"
target triple = "x86_64-pc-linux-gnu"

%struct.darktable_t = type { %struct.dt_codepath_t, i32, i32, ptr, ptr, ptr, ptr, ptr, ptr, ptr, ptr, ptr, ptr, ptr, ptr, ptr, ptr, ptr, ptr, ptr, ptr, ptr, ptr, ptr, ptr, ptr, ptr, ptr, ptr, ptr, [64 x %struct.dt_pthread_mutex_t], %struct.dt_pthread_mutex_t, %struct.dt_pthread_mutex_t, %struct.dt_pthread_mutex_t, %struct.dt_pthread_mutex_t, %struct.dt_pthread_mutex_t, ptr, ptr, ptr, ptr, ptr, ptr, ptr, ptr, ptr, ptr, ptr, ptr, ptr, %struct.dt_lua_state_t, ptr, double, ptr, i32, [47 x i32], i32, i32, ptr, ptr, %struct.dt_sys_resources_t, %struct.dt_backthumb_t, %struct.dt_gimp_t }
%struct.dt_codepath_t = type { i8, [3 x i8] }
%struct.dt_pthread_mutex_t = type { %union.pthread_mutex_t }
%union.pthread_mutex_t = type { %struct.__pthread_mutex_s }
%struct.__pthread_mutex_s = type { i32, i32, i32, i32, i32, i16, i16, %struct.__pthread_internal_list }
%struct.__pthread_internal_list = type { ptr, ptr }
%struct.dt_lua_state_t = type { i32 }
%struct.dt_sys_resources_t = type { i64, i64, ptr, ptr, i32 }
%struct.dt_backthumb_t = type { double, double, i32, i32, i32, i32 }
%struct.dt_gimp_t = type { i32, ptr, ptr, i32, i32 }
%struct.dt_database_t = type { i32, ptr, ptr, ptr, ptr, ptr, ptr, ptr, i32 }

@darktable = external global %struct.darktable_t, align 8
@_trxid = internal global i32 0, align 4
@.str.89 = private unnamed_addr constant [38 x i8] c"[sql] %s:%d, function %s(): exec \22%s\22\00", align 1
@.str.90 = private unnamed_addr constant [119 x i8] c"generated/home/dtcxzyw/WorkSpace/Projects/compilers/llvm-opt-benchmark/bench/darktable/darktable/src/common/database.c\00", align 1
@stderr = external global ptr, align 8
@.str.91 = private unnamed_addr constant [53 x i8] c"sqlite3 error: %s:%d, function %s(), query \22%s\22: %s\0A\00", align 1
@.str.144 = private unnamed_addr constant [66 x i8] c"[dt_database_rollback_transaction] ROLLBACK outside a transaction\00", align 1
@__FUNCTION__.dt_database_rollback_transaction = private unnamed_addr constant [33 x i8] c"dt_database_rollback_transaction\00", align 1
@.str.145 = private unnamed_addr constant [21 x i8] c"ROLLBACK TRANSACTION\00", align 1
@.str.146 = private unnamed_addr constant [40 x i8] c"ROLLBACK TRANSACTION TO SAVEPOINT trx%d\00", align 1

; Function Attrs: nounwind uwtable
define ptr @dt_database_get(ptr noundef %0) #0 {
  %2 = alloca ptr, align 8
  store ptr %0, ptr %2, align 8, !tbaa !6
  %3 = load ptr, ptr %2, align 8, !tbaa !6
  %4 = icmp ne ptr %3, null
  br i1 %4, label %5, label %9

5:                                                ; preds = %1
  %6 = load ptr, ptr %2, align 8, !tbaa !6
  %7 = getelementptr inbounds nuw %struct.dt_database_t, ptr %6, i32 0, i32 5
  %8 = load ptr, ptr %7, align 8, !tbaa !11
  br label %10

9:                                                ; preds = %1
  br label %10

10:                                               ; preds = %9, %5
  %11 = phi ptr [ %8, %5 ], [ null, %9 ]
  ret ptr %11
}

; Function Attrs: inlinehint nounwind uwtable
define available_externally i32 @dt_atomic_sub_int(ptr noundef %0, i32 noundef %1) #8 {
  %3 = alloca ptr, align 8
  %4 = alloca i32, align 4
  %5 = alloca i32, align 4
  %6 = alloca i32, align 4
  store ptr %0, ptr %3, align 8, !tbaa !72
  store i32 %1, ptr %4, align 4, !tbaa !21
  %7 = load ptr, ptr %3, align 8, !tbaa !72
  %8 = load i32, ptr %4, align 4, !tbaa !21
  store i32 %8, ptr %5, align 4, !tbaa !21
  %9 = load i32, ptr %5, align 4
  %10 = atomicrmw sub ptr %7, i32 %9 seq_cst, align 4
  store i32 %10, ptr %6, align 4
  %11 = load i32, ptr %6, align 4, !tbaa !21
  ret i32 %11
}

; Function Attrs: nounwind uwtable
define void @dt_database_rollback_transaction(ptr noundef %0) #0 {
  %2 = alloca ptr, align 8
  %3 = alloca i32, align 4
  %4 = alloca i32, align 4
  %5 = alloca [64 x i8], align 16
  %6 = alloca i32, align 4
  store ptr %0, ptr %2, align 8, !tbaa !6
  call void @llvm.lifetime.start.p0(i64 4, ptr %3) #13
  %7 = call i32 @dt_atomic_sub_int(ptr noundef @_trxid, i32 noundef 1)
  store i32 %7, ptr %3, align 4, !tbaa !21
  %8 = load i32, ptr %3, align 4, !tbaa !21
  %9 = icmp sle i32 %8, 0
  br i1 %9, label %10, label %20

10:                                               ; preds = %1
  br label %11

11:                                               ; preds = %10
  %12 = load i32, ptr getelementptr inbounds nuw (%struct.darktable_t, ptr @darktable, i32 0, i32 2), align 8, !tbaa !27
  %13 = xor i32 %12, -1
  %14 = and i32 0, %13
  %15 = icmp ne i32 %14, 0
  br i1 %15, label %17, label %16

16:                                               ; preds = %11
  call void (ptr, ...) @dt_print_ext(ptr noundef @.str.144)
  br label %17

17:                                               ; preds = %16, %11
  br label %18

18:                                               ; preds = %17
  br label %19

19:                                               ; preds = %18
  br label %20

20:                                               ; preds = %19, %1
  %21 = load i32, ptr %3, align 4, !tbaa !21
  %22 = icmp eq i32 %21, 1
  br i1 %22, label %23, label %52

23:                                               ; preds = %20
  br label %24

24:                                               ; preds = %23
  br label %25

25:                                               ; preds = %24
  %26 = load i32, ptr getelementptr inbounds nuw (%struct.darktable_t, ptr @darktable, i32 0, i32 2), align 8, !tbaa !27
  %27 = and i32 256, %26
  %28 = icmp ne i32 %27, 0
  br i1 %28, label %29, label %35

29:                                               ; preds = %25
  %30 = load i32, ptr getelementptr inbounds nuw (%struct.darktable_t, ptr @darktable, i32 0, i32 2), align 8, !tbaa !27
  %31 = xor i32 %30, -1
  %32 = and i32 0, %31
  %33 = icmp ne i32 %32, 0
  br i1 %33, label %35, label %34

34:                                               ; preds = %29
  call void (ptr, ...) @dt_print_ext(ptr noundef @.str.89, ptr noundef @.str.90, i32 noundef 5810, ptr noundef @__FUNCTION__.dt_database_rollback_transaction, ptr noundef @.str.145)
  br label %35

35:                                               ; preds = %34, %29, %25
  br label %36

36:                                               ; preds = %35
  br label %37

37:                                               ; preds = %36
  call void @llvm.lifetime.start.p0(i64 4, ptr %4) #13
  %38 = load ptr, ptr %2, align 8, !tbaa !6
  %39 = call ptr @dt_database_get(ptr noundef %38)
  %40 = call i32 @sqlite3_exec(ptr noundef %39, ptr noundef @.str.145, ptr noundef null, ptr noundef null, ptr noundef null)
  store i32 %40, ptr %4, align 4, !tbaa !21
  %41 = load i32, ptr %4, align 4, !tbaa !21
  %42 = icmp ne i32 %41, 0
  br i1 %42, label %43, label %49

43:                                               ; preds = %37
  %44 = load ptr, ptr @stderr, align 8, !tbaa !80
  %45 = load ptr, ptr getelementptr inbounds nuw (%struct.darktable_t, ptr @darktable, i32 0, i32 18), align 8, !tbaa !82
  %46 = call ptr @dt_database_get(ptr noundef %45)
  %47 = call ptr @sqlite3_errmsg(ptr noundef %46)
  %48 = call i32 (ptr, ptr, ...) @fprintf(ptr noundef %44, ptr noundef @.str.91, ptr noundef @.str.90, i32 noundef 5810, ptr noundef @__FUNCTION__.dt_database_rollback_transaction, ptr noundef @.str.145, ptr noundef %47) #13
  br label %49

49:                                               ; preds = %43, %37
  call void @llvm.lifetime.end.p0(i64 4, ptr %4) #13
  br label %50

50:                                               ; preds = %49
  br label %51

51:                                               ; preds = %50
  br label %88

52:                                               ; preds = %20
  call void @llvm.lifetime.start.p0(i64 64, ptr %5) #13
  call void @llvm.memset.p0.i64(ptr align 16 %5, i8 0, i64 64, i1 false)
  %53 = getelementptr inbounds [64 x i8], ptr %5, i64 0, i64 0
  %54 = load i32, ptr %3, align 4, !tbaa !21
  %55 = sub nsw i32 %54, 1
  %56 = call i32 (ptr, i64, ptr, ...) @g_snprintf(ptr noundef %53, i64 noundef 64, ptr noundef @.str.146, i32 noundef %55)
  br label %57

57:                                               ; preds = %52
  br label %58

58:                                               ; preds = %57
  %59 = load i32, ptr getelementptr inbounds nuw (%struct.darktable_t, ptr @darktable, i32 0, i32 2), align 8, !tbaa !27
  %60 = and i32 256, %59
  %61 = icmp ne i32 %60, 0
  br i1 %61, label %62, label %69

62:                                               ; preds = %58
  %63 = load i32, ptr getelementptr inbounds nuw (%struct.darktable_t, ptr @darktable, i32 0, i32 2), align 8, !tbaa !27
  %64 = xor i32 %63, -1
  %65 = and i32 0, %64
  %66 = icmp ne i32 %65, 0
  br i1 %66, label %69, label %67

67:                                               ; preds = %62
  %68 = getelementptr inbounds [64 x i8], ptr %5, i64 0, i64 0
  call void (ptr, ...) @dt_print_ext(ptr noundef @.str.89, ptr noundef @.str.90, i32 noundef 5817, ptr noundef @__FUNCTION__.dt_database_rollback_transaction, ptr noundef %68)
  br label %69

69:                                               ; preds = %67, %62, %58
  br label %70

70:                                               ; preds = %69
  br label %71

71:                                               ; preds = %70
  call void @llvm.lifetime.start.p0(i64 4, ptr %6) #13
  %72 = load ptr, ptr %2, align 8, !tbaa !6
  %73 = call ptr @dt_database_get(ptr noundef %72)
  %74 = getelementptr inbounds [64 x i8], ptr %5, i64 0, i64 0
  %75 = call i32 @sqlite3_exec(ptr noundef %73, ptr noundef %74, ptr noundef null, ptr noundef null, ptr noundef null)
  store i32 %75, ptr %6, align 4, !tbaa !21
  %76 = load i32, ptr %6, align 4, !tbaa !21
  %77 = icmp ne i32 %76, 0
  br i1 %77, label %78, label %85

78:                                               ; preds = %71
  %79 = load ptr, ptr @stderr, align 8, !tbaa !80
  %80 = getelementptr inbounds [64 x i8], ptr %5, i64 0, i64 0
  %81 = load ptr, ptr getelementptr inbounds nuw (%struct.darktable_t, ptr @darktable, i32 0, i32 18), align 8, !tbaa !82
  %82 = call ptr @dt_database_get(ptr noundef %81)
  %83 = call ptr @sqlite3_errmsg(ptr noundef %82)
  %84 = call i32 (ptr, ptr, ...) @fprintf(ptr noundef %79, ptr noundef @.str.91, ptr noundef @.str.90, i32 noundef 5817, ptr noundef @__FUNCTION__.dt_database_rollback_transaction, ptr noundef %80, ptr noundef %83) #13
  br label %85

85:                                               ; preds = %78, %71
  call void @llvm.lifetime.end.p0(i64 4, ptr %6) #13
  br label %86

86:                                               ; preds = %85
  br label %87

87:                                               ; preds = %86
  call void @llvm.lifetime.end.p0(i64 64, ptr %5) #13
  br label %88

88:                                               ; preds = %87, %51
  call void @llvm.lifetime.end.p0(i64 4, ptr %3) #13
  ret void
}